; ModuleID = '22/781.c'
source_filename = "22/781.c"
target datalayout = "e-m:e-p270:32:32-p271:32:32-p272:64:64-i64:64-f80:128-n8:16:32:64-S128"
target triple = "x86_64-pc-linux-gnu"

@.str = private unnamed_addr constant [5 x i8] c"%d%c\00", align 1
@.str.1 = private unnamed_addr constant [3 x i8] c"No\00", align 1
@.str.2 = private unnamed_addr constant [3 x i8] c"%d\00", align 1

; Function Attrs: noinline nounwind uwtable
define dso_local i32 @main() #0 {
  %1 = alloca i32, align 4
  %2 = alloca [300 x i32], align 16
  %3 = alloca i32, align 4
  %4 = alloca i32, align 4
  %5 = alloca i32, align 4
  %6 = alloca i32, align 4
  %7 = alloca i32, align 4
  %8 = alloca i32, align 4
  %9 = alloca i32, align 4
  %10 = alloca [300 x i8], align 16
  store i32 0, i32* %1, align 4
  store i32 0, i32* %3, align 4
  store i32 0, i32* %4, align 4
  br label %11

11:                                               ; preds = %0, %26
  %12 = load i32, i32* %3, align 4
  %13 = sext i32 %12 to i64
  %14 = getelementptr inbounds [300 x i32], [300 x i32]* %2, i64 0, i64 %13
  %15 = load i32, i32* %3, align 4
  %16 = sext i32 %15 to i64
  %17 = getelementptr inbounds [300 x i8], [300 x i8]* %10, i64 0, i64 %16
  %18 = call i32 (i8*, ...) @__isoc99_scanf(i8* getelementptr inbounds ([5 x i8], [5 x i8]* @.str, i64 0, i64 0), i32* %14, i8* %17)
  %19 = load i32, i32* %3, align 4
  %20 = sext i32 %19 to i64
  %21 = getelementptr inbounds [300 x i8], [300 x i8]* %10, i64 0, i64 %20
  %22 = load i8, i8* %21, align 1
  %23 = sext i8 %22 to i32
  %24 = icmp ne i32 %23, 44
  br i1 %24, label %25, label %26

25:                                               ; preds = %11
  br label %29

26:                                               ; preds = %11
  %27 = load i32, i32* %3, align 4
  %28 = add nsw i32 %27, 1
  store i32 %28, i32* %3, align 4
  br label %11

29:                                               ; preds = %25
  %30 = load i32, i32* %3, align 4
  %31 = icmp eq i32 %30, 0
  br i1 %31, label %32, label %34

32:                                               ; preds = %29
  %33 = call i32 (i8*, ...) @printf(i8* getelementptr inbounds ([3 x i8], [3 x i8]* @.str.1, i64 0, i64 0))
  br label %137

34:                                               ; preds = %29
  store i32 1, i32* %5, align 4
  br label %35

35:                                               ; preds = %60, %34
  %36 = load i32, i32* %5, align 4
  %37 = load i32, i32* %3, align 4
  %38 = icmp sle i32 %36, %37
  br i1 %38, label %39, label %63

39:                                               ; preds = %35
  %40 = getelementptr inbounds [300 x i32], [300 x i32]* %2, i64 0, i64 0
  %41 = load i32, i32* %40, align 16
  %42 = load i32, i32* %5, align 4
  %43 = sext i32 %42 to i64
  %44 = getelementptr inbounds [300 x i32], [300 x i32]* %2, i64 0, i64 %43
  %45 = load i32, i32* %44, align 4
  %46 = icmp slt i32 %41, %45
  br i1 %46, label %47, label %59

47:                                               ; preds = %39
  %48 = getelementptr inbounds [300 x i32], [300 x i32]* %2, i64 0, i64 0
  %49 = load i32, i32* %48, align 16
  store i32 %49, i32* %7, align 4
  %50 = load i32, i32* %5, align 4
  %51 = sext i32 %50 to i64
  %52 = getelementptr inbounds [300 x i32], [300 x i32]* %2, i64 0, i64 %51
  %53 = load i32, i32* %52, align 4
  %54 = getelementptr inbounds [300 x i32], [300 x i32]* %2, i64 0, i64 0
  store i32 %53, i32* %54, align 16
  %55 = load i32, i32* %7, align 4
  %56 = load i32, i32* %5, align 4
  %57 = sext i32 %56 to i64
  %58 = getelementptr inbounds [300 x i32], [300 x i32]* %2, i64 0, i64 %57
  store i32 %55, i32* %58, align 4
  br label %59

59:                                               ; preds = %47, %39
  br label %60

60:                                               ; preds = %59
  %61 = load i32, i32* %5, align 4
  %62 = add nsw i32 %61, 1
  store i32 %62, i32* %5, align 4
  br label %35

63:                                               ; preds = %35
  store i32 1, i32* %8, align 4
  br label %64

64:                                               ; preds = %81, %63
  %65 = load i32, i32* %8, align 4
  %66 = load i32, i32* %3, align 4
  %67 = icmp sle i32 %65, %66
  br i1 %67, label %68, label %84

68:                                               ; preds = %64
  %69 = load i32, i32* %8, align 4
  %70 = sext i32 %69 to i64
  %71 = getelementptr inbounds [300 x i32], [300 x i32]* %2, i64 0, i64 %70
  %72 = load i32, i32* %71, align 4
  %73 = getelementptr inbounds [300 x i32], [300 x i32]* %2, i64 0, i64 0
  %74 = load i32, i32* %73, align 16
  %75 = icmp eq i32 %72, %74
  br i1 %75, label %76, label %80

76:                                               ; preds = %68
  %77 = load i32, i32* %8, align 4
  %78 = sext i32 %77 to i64
  %79 = getelementptr inbounds [300 x i32], [300 x i32]* %2, i64 0, i64 %78
  store i32 0, i32* %79, align 4
  br label %80

80:                                               ; preds = %76, %68
  br label %81

81:                                               ; preds = %80
  %82 = load i32, i32* %8, align 4
  %83 = add nsw i32 %82, 1
  store i32 %83, i32* %8, align 4
  br label %64

84:                                               ; preds = %64
  store i32 2, i32* %6, align 4
  br label %85

85:                                               ; preds = %104, %84
  %86 = load i32, i32* %6, align 4
  %87 = load i32, i32* %3, align 4
  %88 = icmp sle i32 %86, %87
  br i1 %88, label %89, label %107

89:                                               ; preds = %85
  %90 = getelementptr inbounds [300 x i32], [300 x i32]* %2, i64 0, i64 1
  %91 = load i32, i32* %90, align 4
  %92 = load i32, i32* %6, align 4
  %93 = sext i32 %92 to i64
  %94 = getelementptr inbounds [300 x i32], [300 x i32]* %2, i64 0, i64 %93
  %95 = load i32, i32* %94, align 4
  %96 = icmp slt i32 %91, %95
  br i1 %96, label %97, label %103

97:                                               ; preds = %89
  %98 = load i32, i32* %6, align 4
  %99 = sext i32 %98 to i64
  %100 = getelementptr inbounds [300 x i32], [300 x i32]* %2, i64 0, i64 %99
  %101 = load i32, i32* %100, align 4
  %102 = getelementptr inbounds [300 x i32], [300 x i32]* %2, i64 0, i64 1
  store i32 %101, i32* %102, align 4
  br label %103

103:                                              ; preds = %97, %89
  br label %104

104:                                              ; preds = %103
  %105 = load i32, i32* %6, align 4
  %106 = add nsw i32 %105, 1
  store i32 %106, i32* %6, align 4
  br label %85

107:                                              ; preds = %85
  store i32 2, i32* %9, align 4
  br label %108

108:                                              ; preds = %126, %107
  %109 = load i32, i32* %9, align 4
  %110 = load i32, i32* %3, align 4
  %111 = icmp sle i32 %109, %110
  br i1 %111, label %112, label %129

112:                                              ; preds = %108
  %113 = getelementptr inbounds [300 x i32], [300 x i32]* %2, i64 0, i64 1
  %114 = load i32, i32* %113, align 4
  %115 = load i32, i32* %6, align 4
  %116 = sext i32 %115 to i64
  %117 = getelementptr inbounds [300 x i32], [300 x i32]* %2, i64 0, i64 %116
  %118 = load i32, i32* %117, align 4
  %119 = icmp eq i32 %114, %118
  br i1 %119, label %124, label %120

120:                                              ; preds = %112
  %121 = getelementptr inbounds [300 x i32], [300 x i32]* %2, i64 0, i64 1
  %122 = load i32, i32* %121, align 4
  %123 = icmp eq i32 %122, 0
  br i1 %123, label %124, label %125

124:                                              ; preds = %120, %112
  store i32 1, i32* %4, align 4
  br label %125

125:                                              ; preds = %124, %120
  br label %126

126:                                              ; preds = %125
  %127 = load i32, i32* %9, align 4
  %128 = add nsw i32 %127, 1
  store i32 %128, i32* %9, align 4
  br label %108

129:                                              ; preds = %108
  %130 = load i32, i32* %4, align 4
  %131 = icmp ne i32 %130, 0
  br i1 %131, label %136, label %132

132:                                              ; preds = %129
  %133 = getelementptr inbounds [300 x i32], [300 x i32]* %2, i64 0, i64 1
  %134 = load i32, i32* %133, align 4
  %135 = call i32 (i8*, ...) @printf(i8* getelementptr inbounds ([3 x i8], [3 x i8]* @.str.2, i64 0, i64 0), i32 %134)
  br label %136

136:                                              ; preds = %132, %129
  br label %137

137:                                              ; preds = %136, %32
  %138 = load i32, i32* %4, align 4
  %139 = icmp ne i32 %138, 0
  br i1 %139, label %140, label %142

140:                                              ; preds = %137
  %141 = call i32 (i8*, ...) @printf(i8* getelementptr inbounds ([3 x i8], [3 x i8]* @.str.1, i64 0, i64 0))
  br label %142

142:                                              ; preds = %140, %137
  ret i32 0
}

declare dso_local i32 @__isoc99_scanf(i8*, ...) #1

declare dso_local i32 @printf(i8*, ...) #1


!llvm.module.flags = !{!0}
!llvm.ident = !{!1}

!0 = !{i32 1, !"wchar_size", i32 4}
!1 = !{!"clang version 10.0.0-4ubuntu1 "}
